target datalayout = "e-m:e-p270:32:32-p271:32:32-p272:64:64-i64:64-i128:128-f80:128-n8:16:32:64-S128"
target triple = "x86_64-pc-linux-gnu"

; Function Attrs: nounwind uwtable
define hidden i32 @getSampleSizeInBytes(i32 noundef %0, i32 noundef %1) #0 {
  %3 = alloca i32, align 4
  %4 = alloca i32, align 4
  %5 = alloca i32, align 4
  store i32 %0, ptr %4, align 4
  store i32 %1, ptr %5, align 4
  %6 = load i32, ptr %4, align 4
  switch i32 %6, label %11 [
    i32 1, label %7
    i32 2, label %8
    i32 3, label %9
    i32 4, label %9
    i32 5, label %10
  ]

7:                                                ; preds = %2
  store i32 1, ptr %3, align 4
  br label %13

8:                                                ; preds = %2
  store i32 2, ptr %3, align 4
  br label %13

9:                                                ; preds = %2, %2
  store i32 3, ptr %3, align 4
  br label %13

10:                                               ; preds = %2
  store i32 4, ptr %3, align 4
  br label %13

11:                                               ; preds = %2
  %12 = load i32, ptr %5, align 4
  store i32 %12, ptr %3, align 4
  br label %13

13:                                               ; preds = %11, %10, %9, %8, %7
  %14 = load i32, ptr %3, align 4
  ret i32 %14
}