; Function Attrs: mustprogress nofree norecurse nosync nounwind willreturn memory(none) uwtable
define hidden noundef i32 @getSampleSizeInBytes(i32 noundef %0, i32 noundef %1) local_unnamed_addr #2 {
  %switch.tableidx = add i32 %0, -1
  %3 = icmp ult i32 %switch.tableidx, 5
  br i1 %3, label %switch.lookup, label %5

switch.lookup:                                    ; preds = %2
  %4 = zext nneg i32 %switch.tableidx to i64
  %switch.gep = getelementptr inbounds [5 x i32], ptr @switch.table.getSampleSizeInBytes, i64 0, i64 %4
  %switch.load = load i32, ptr %switch.gep, align 4
  br label %5

5:                                                ; preds = %2, %switch.lookup
  %.0 = phi i32 [ %switch.load, %switch.lookup ], [ %1, %2 ]
  ret i32 %.0
}